(dp0
S'bob'
p1
(dp2
S'job'
p3
S'dev'
p4
sS'pay'
p5
I30000
sS'age'
p6
I42
sS'name'
p7
S'Bob Smith'
p8
ssS'sue'
p9
(dp10
g3
S'hdw'
p11
sg5
I40000
sg6
I45
sg7
S'Sue Jones'
p12
ssS'tom'
p13
(dp14
g3
Nsg5
I0
sg6
I50
sg7
S'Tom'
p15
ss.